target datalayout = "e-m:e-p270:32:32-p271:32:32-p272:64:64-i64:64-i128:128-f80:128-n8:16:32:64-S128"
target triple = "x86_64-pc-linux-gnu"

@.str.14 = private unnamed_addr constant [3 x i8] c"!=\00", align 1
@.str.44 = private unnamed_addr constant [7 x i8] c"string\00", align 1

; Function Attrs: nounwind uwtable
define i32 @test_strn_ne(ptr noundef %0, i32 noundef %1, ptr noundef %2, ptr noundef %3, ptr noundef %4, i64 noundef %5, ptr noundef %6, i64 noundef %7) #0 {
  %9 = alloca i32, align 4
  %10 = alloca ptr, align 8
  %11 = alloca i32, align 4
  %12 = alloca ptr, align 8
  %13 = alloca ptr, align 8
  %14 = alloca ptr, align 8
  %15 = alloca i64, align 8
  %16 = alloca ptr, align 8
  %17 = alloca i64, align 8
  store ptr %0, ptr %10, align 8, !tbaa !3
  store i32 %1, ptr %11, align 4, !tbaa !8
  store ptr %2, ptr %12, align 8, !tbaa !3
  store ptr %3, ptr %13, align 8, !tbaa !3
  store ptr %4, ptr %14, align 8, !tbaa !3
  store i64 %5, ptr %15, align 8, !tbaa !13
  store ptr %6, ptr %16, align 8, !tbaa !3
  store i64 %7, ptr %17, align 8, !tbaa !13
  %18 = load ptr, ptr %14, align 8, !tbaa !3
  %19 = icmp eq ptr %18, null
  %20 = zext i1 %19 to i32
  %21 = load ptr, ptr %16, align 8, !tbaa !3
  %22 = icmp eq ptr %21, null
  %23 = zext i1 %22 to i32
  %24 = xor i32 %20, %23
  %25 = icmp ne i32 %24, 0
  br i1 %25, label %26, label %27

26:                                               ; preds = %8
  store i32 1, ptr %9, align 4
  br label %66

27:                                               ; preds = %8
  %28 = load i64, ptr %15, align 8, !tbaa !13
  %29 = load i64, ptr %17, align 8, !tbaa !13
  %30 = icmp ne i64 %28, %29
  br i1 %30, label %40, label %31

31:                                               ; preds = %27
  %32 = load ptr, ptr %14, align 8, !tbaa !3
  %33 = icmp eq ptr %32, null
  br i1 %33, label %40, label %34

34:                                               ; preds = %31
  %35 = load ptr, ptr %14, align 8, !tbaa !3
  %36 = load ptr, ptr %16, align 8, !tbaa !3
  %37 = load i64, ptr %15, align 8, !tbaa !13
  %38 = call i32 @strncmp(ptr noundef %35, ptr noundef %36, i64 noundef %37) #9
  %39 = icmp eq i32 %38, 0
  br i1 %39, label %40, label %65

40:                                               ; preds = %34, %31, %27
  %41 = load ptr, ptr %10, align 8, !tbaa !3
  %42 = load i32, ptr %11, align 4, !tbaa !8
  %43 = load ptr, ptr %12, align 8, !tbaa !3
  %44 = load ptr, ptr %13, align 8, !tbaa !3
  %45 = load ptr, ptr %14, align 8, !tbaa !3
  %46 = load ptr, ptr %14, align 8, !tbaa !3
  %47 = icmp eq ptr %46, null
  br i1 %47, label %48, label %49

48:                                               ; preds = %40
  br label %53

49:                                               ; preds = %40
  %50 = load ptr, ptr %14, align 8, !tbaa !3
  %51 = load i64, ptr %15, align 8, !tbaa !13
  %52 = call i64 @OPENSSL_strnlen(ptr noundef %50, i64 noundef %51)
  br label %53

53:                                               ; preds = %49, %48
  %54 = phi i64 [ 0, %48 ], [ %52, %49 ]
  %55 = load ptr, ptr %16, align 8, !tbaa !3
  %56 = load ptr, ptr %16, align 8, !tbaa !3
  %57 = icmp eq ptr %56, null
  br i1 %57, label %58, label %59

58:                                               ; preds = %53
  br label %63

59:                                               ; preds = %53
  %60 = load ptr, ptr %16, align 8, !tbaa !3
  %61 = load i64, ptr %17, align 8, !tbaa !13
  %62 = call i64 @OPENSSL_strnlen(ptr noundef %60, i64 noundef %61)
  br label %63

63:                                               ; preds = %59, %58
  %64 = phi i64 [ 0, %58 ], [ %62, %59 ]
  call void @test_fail_string_message(ptr noundef null, ptr noundef %41, i32 noundef %42, ptr noundef @.str.44, ptr noundef %43, ptr noundef %44, ptr noundef @.str.14, ptr noundef %45, i64 noundef %54, ptr noundef %55, i64 noundef %64)
  store i32 0, ptr %9, align 4
  br label %66

65:                                               ; preds = %34
  store i32 1, ptr %9, align 4
  br label %66

66:                                               ; preds = %65, %63, %26
  %67 = load i32, ptr %9, align 4
  ret i32 %67
}