; Function Attrs: nounwind uwtable
define range(i32 0, 2) i32 @test_strn_ne(ptr noundef %0, i32 noundef %1, ptr noundef %2, ptr noundef %3, ptr noundef %4, i64 noundef %5, ptr noundef %6, i64 noundef %7) local_unnamed_addr #0 {
  %9 = icmp eq ptr %4, null
  %10 = icmp eq ptr %6, null
  %11 = xor i1 %9, %10
  br i1 %11, label %25, label %12

12:                                               ; preds = %8
  %13 = icmp ne i64 %5, %7
  %or.cond = or i1 %9, %13
  br i1 %or.cond, label %17, label %14

14:                                               ; preds = %12
  %15 = tail call i32 @strncmp(ptr noundef nonnull %4, ptr noundef %6, i64 noundef %5) #10
  %16 = icmp eq i32 %15, 0
  br i1 %16, label %.thread, label %25

17:                                               ; preds = %12
  br i1 %9, label %19, label %.thread

.thread:                                          ; preds = %14, %17
  %18 = tail call i64 @OPENSSL_strnlen(ptr noundef nonnull %4, i64 noundef %5) #8
  br label %19

19:                                               ; preds = %17, %.thread
  %20 = phi i64 [ %18, %.thread ], [ 0, %17 ]
  br i1 %10, label %23, label %21

21:                                               ; preds = %19
  %22 = tail call i64 @OPENSSL_strnlen(ptr noundef nonnull %6, i64 noundef %7) #8
  br label %23

23:                                               ; preds = %19, %21
  %24 = phi i64 [ %22, %21 ], [ 0, %19 ]
  tail call void @test_fail_string_message(ptr noundef null, ptr noundef %0, i32 noundef %1, ptr noundef nonnull @.str.44, ptr noundef %2, ptr noundef %3, ptr noundef nonnull @.str.14, ptr noundef %4, i64 noundef %20, ptr noundef %6, i64 noundef %24) #8
  br label %25

25:                                               ; preds = %14, %8, %23
  %.0 = phi i32 [ 0, %23 ], [ 1, %8 ], [ 1, %14 ]
  ret i32 %.0
}